; Function Attrs: mustprogress nounwind uwtable
define hidden void @_ZN11StringDedup13notify_internEP7oopDesc(ptr noundef %0) local_unnamed_addr #1 align 2 {
  %2 = load i32, ptr @_ZN16java_lang_String13_flags_offsetE, align 4
  %3 = ptrtoint ptr %0 to i64
  %4 = sext i32 %2 to i64
  %5 = add nsw i64 %4, %3
  %6 = inttoptr i64 %5 to ptr
  %7 = load volatile i8, ptr %6, align 1
  %8 = and i8 %7, 1
  %.not.i = icmp eq i8 %8, 0
  br i1 %.not.i, label %10, label %9

9:                                                ; preds = %1
  tail call void asm sideeffect "", "~{memory},~{dirflag},~{fpsr},~{flags}"() #8, !srcloc !6
  br label %_ZN11StringDedup20forbid_deduplicationEP7oopDesc.exit

10:                                               ; preds = %1
  %11 = load ptr, ptr @StringDedupIntern_lock, align 8
  %.not.i.i.i = icmp eq ptr %11, null
  br i1 %.not.i.i.i, label %_ZN11MutexLockerC2EP5MutexNS0_18SafepointCheckFlagE.exit.thread.i, label %13

_ZN11MutexLockerC2EP5MutexNS0_18SafepointCheckFlagE.exit.thread.i: ; preds = %10
  %12 = tail call noundef zeroext i1 @_ZN16java_lang_String17test_and_set_flagEP7oopDesch(ptr noundef %0, i8 noundef zeroext 1) #8
  br label %_ZN11StringDedup20forbid_deduplicationEP7oopDesc.exit

13:                                               ; preds = %10
  tail call void @_ZN5Mutex28lock_without_safepoint_checkEv(ptr noundef nonnull align 8 dereferenceable(104) %11) #8
  %14 = tail call noundef zeroext i1 @_ZN16java_lang_String17test_and_set_flagEP7oopDesch(ptr noundef %0, i8 noundef zeroext 1) #8
  tail call void @_ZN5Mutex6unlockEv(ptr noundef nonnull align 8 dereferenceable(104) %11) #8
  br label %_ZN11StringDedup20forbid_deduplicationEP7oopDesc.exit

_ZN11StringDedup20forbid_deduplicationEP7oopDesc.exit: ; preds = %9, %_ZN11MutexLockerC2EP5MutexNS0_18SafepointCheckFlagE.exit.thread.i, %13
  %15 = tail call noundef ptr @_ZN11StringDedup9Processor20storage_for_requestsEv() #8
  %16 = load ptr, ptr %15, align 8
  %17 = tail call noundef ptr @_ZN10OopStorage8allocateEv(ptr noundef nonnull align 8 dereferenceable(126) %16) #8
  %.not = icmp eq ptr %17, null
  br i1 %.not, label %22, label %18

18:                                               ; preds = %_ZN11StringDedup20forbid_deduplicationEP7oopDesc.exit
  %19 = load ptr, ptr @_ZN14AccessInternal15RuntimeDispatchILm598084EP7oopDescLNS_11BarrierTypeE0EE11_store_funcE, align 8
  tail call void %19(ptr noundef nonnull %17, ptr noundef %0) #8
  %20 = load volatile ptr, ptr getelementptr inbounds (i8, ptr @_ZN16LogTagSetMappingILN6LogTag4typeE148ELS1_0ELS1_0ELS1_0ELS1_0ELS1_0EE7_tagsetE, i64 48), align 8
  %.not6 = icmp eq ptr %20, null
  br i1 %.not6, label %22, label %21

21:                                               ; preds = %18
  tail call void (ptr, ...) @_ZN7LogImplILN6LogTag4typeE148ELS1_0ELS1_0ELS1_0ELS1_0ELS1_0EE5writeILN8LogLevel4typeE1EEEvPKcz(ptr noundef nonnull @.str.6)
  br label %22

22:                                               ; preds = %21, %18, %_ZN11StringDedup20forbid_deduplicationEP7oopDesc.exit
  tail call void @_ZN11StringDedup10StorageUse10relinquishEv(ptr noundef nonnull align 8 dereferenceable(16) %15) #8
  ret void
}